(lp1
(lp2
S'D-3'
p3
aS'T-6'
p4
aa(lp5
S'D-2'
p6
aS'T-9'
p7
aa(lp8
S'D-3'
p9
aS'T-17'
p10
aa(lp11
S'D-2'
p12
aS'T-11'
p13
aa(lp14
S'D-2'
p15
aS'T-10'
p16
aa(lp17
S'D-2'
p18
aS'T-13'
p19
aa(lp20
S'D-2'
p21
aS'T-12'
p22
aa(lp23
S'D-5'
p24
aS'T-34'
p25
aa(lp26
S'D-3'
p27
aS'T-15'
p28
aa(lp29
S'D-2'
p30
aS'T-5'
p31
aa(lp32
S'D-4'
p33
aS'T-44'
p34
aa(lp35
S'D-2'
p36
aS'T-7'
p37
aa(lp38
S'D-3'
p39
aS'T-19'
p40
aa(lp41
S'D-1'
p42
aS'T-8'
p43
aa(lp44
S'D-2'
p45
aS'T-2'
p46
aa(lp47
S'D-1'
p48
aS'T-4'
p49
aa(lp50
S'D-3'
p51
aS'T-16'
p52
aa(lp53
S'D-1'
p54
aS'T-3'
p55
aa(lp56
S'D-3'
p57
aS'T-14'
p58
aa(lp59
S'D-1'
p60
aS'T-1'
p61
aa(lp62
S'D-4'
p63
aS'T-31'
p64
aa(lp65
S'D-4'
p66
aS'T-33'
p67
aa(lp68
S'D-4'
p69
aS'T-32'
p70
aa(lp71
S'D-4'
p72
aS'T-37'
p73
aa(lp74
S'D-5'
p75
aS'T-50'
p76
aa(lp77
S'D-5'
p78
aS'T-35'
p79
aa(lp80
S'D-4'
p81
aS'T-45'
p82
aa(lp83
S'D-1'
p84
aS'T-30'
p85
aa(lp86
S'D-4'
p87
aS'T-43'
p88
aa(lp89
S'D-3'
p90
aS'T-18'
p91
aa(lp92
S'D-5'
p93
aS'T-38'
p94
aa(lp95
S'D-2'
p96
aS'T-21'
p97
aa(lp98
S'D-2'
p99
aS'T-22'
p100
aa(lp101
S'D-4'
p102
aS'T-46'
p103
aa(lp104
S'D-4'
p105
aS'T-48'
p106
aa(lp107
S'D-5'
p108
aS'T-49'
p109
aa(lp110
S'D-1'
p111
aS'T-28'
p112
aa(lp113
S'D-1'
p114
aS'T-29'
p115
aa(lp116
S'D-5'
p117
aS'T-39'
p118
aa(lp119
S'D-3'
p120
aS'T-25'
p121
aa(lp122
S'D-3'
p123
aS'T-26'
p124
aa(lp125
S'D-4'
p126
aS'T-41'
p127
aa(lp128
S'D-3'
p129
aS'T-20'
p130
aa(lp131
S'D-5'
p132
aS'T-42'
p133
aa(lp134
S'D-1'
p135
aS'T-23'
p136
aa(lp137
S'D-5'
p138
aS'T-40'
p139
aa(lp140
S'D-5'
p141
aS'T-47'
p142
aa(lp143
S'D-1'
p144
aS'T-24'
p145
aa(lp146
S'D-1'
p147
aS'T-27'
p148
aa(lp149
S'D-5'
p150
aS'T-36'
p151
aa.