(lp1
(lp2
S'D-3'
p3
aS'T-6'
p4
aa(lp5
S'D-3'
p6
aS'T-6'
p7
aa(lp8
S'D-3'
p9
aS'T-6'
p10
aa(lp11
S'D-3'
p12
aS'T-6'
p13
aa(lp14
S'D-3'
p15
aS'T-6'
p16
aa(lp17
S'D-3'
p18
aS'T-6'
p19
aa(lp20
S'D-2'
p21
aS'T-9'
p22
aa(lp23
S'D-2'
p24
aS'T-9'
p25
aa(lp26
S'D-2'
p27
aS'T-9'
p28
aa(lp29
S'D-2'
p30
aS'T-9'
p31
aa(lp32
S'D-2'
p33
aS'T-9'
p34
aa(lp35
S'D-2'
p36
aS'T-9'
p37
aa(lp38
S'D-3'
p39
aS'T-17'
p40
aa(lp41
S'D-3'
p42
aS'T-17'
p43
aa(lp44
S'D-3'
p45
aS'T-17'
p46
aa(lp47
S'D-2'
p48
aS'T-11'
p49
aa(lp50
S'D-2'
p51
aS'T-11'
p52
aa(lp53
S'D-2'
p54
aS'T-11'
p55
aa(lp56
S'D-2'
p57
aS'T-11'
p58
aa(lp59
S'D-2'
p60
aS'T-11'
p61
aa(lp62
S'D-2'
p63
aS'T-11'
p64
aa(lp65
S'D-2'
p66
aS'T-11'
p67
aa(lp68
S'D-2'
p69
aS'T-11'
p70
aa(lp71
S'D-2'
p72
aS'T-11'
p73
aa(lp74
S'D-2'
p75
aS'T-11'
p76
aa(lp77
S'D-2'
p78
aS'T-10'
p79
aa(lp80
S'D-2'
p81
aS'T-10'
p82
aa(lp83
S'D-2'
p84
aS'T-10'
p85
aa(lp86
S'D-2'
p87
aS'T-10'
p88
aa(lp89
S'D-2'
p90
aS'T-10'
p91
aa(lp92
S'D-2'
p93
aS'T-10'
p94
aa(lp95
S'D-2'
p96
aS'T-10'
p97
aa(lp98
S'D-2'
p99
aS'T-10'
p100
aa(lp101
S'D-2'
p102
aS'T-10'
p103
aa(lp104
S'D-2'
p105
aS'T-13'
p106
aa(lp107
S'D-2'
p108
aS'T-13'
p109
aa(lp110
S'D-2'
p111
aS'T-13'
p112
aa(lp113
S'D-2'
p114
aS'T-13'
p115
aa(lp116
S'D-2'
p117
aS'T-13'
p118
aa(lp119
S'D-2'
p120
aS'T-13'
p121
aa(lp122
S'D-2'
p123
aS'T-13'
p124
aa(lp125
S'D-2'
p126
aS'T-13'
p127
aa(lp128
S'D-2'
p129
aS'T-12'
p130
aa(lp131
S'D-2'
p132
aS'T-12'
p133
aa(lp134
S'D-2'
p135
aS'T-12'
p136
aa(lp137
S'D-2'
p138
aS'T-12'
p139
aa(lp140
S'D-2'
p141
aS'T-12'
p142
aa(lp143
S'D-2'
p144
aS'T-12'
p145
aa(lp146
S'D-2'
p147
aS'T-12'
p148
aa(lp149
S'D-5'
p150
aS'T-34'
p151
aa(lp152
S'D-5'
p153
aS'T-34'
p154
aa(lp155
S'D-5'
p156
aS'T-34'
p157
aa(lp158
S'D-5'
p159
aS'T-34'
p160
aa(lp161
S'D-5'
p162
aS'T-34'
p163
aa(lp164
S'D-5'
p165
aS'T-34'
p166
aa(lp167
S'D-5'
p168
aS'T-34'
p169
aa(lp170
S'D-5'
p171
aS'T-34'
p172
aa(lp173
S'D-5'
p174
aS'T-34'
p175
aa(lp176
S'D-5'
p177
aS'T-34'
p178
aa(lp179
S'D-5'
p180
aS'T-34'
p181
aa(lp182
S'D-5'
p183
aS'T-34'
p184
aa(lp185
S'D-3'
p186
aS'T-15'
p187
aa(lp188
S'D-3'
p189
aS'T-15'
p190
aa(lp191
S'D-3'
p192
aS'T-15'
p193
aa(lp194
S'D-3'
p195
aS'T-15'
p196
aa(lp197
S'D-3'
p198
aS'T-15'
p199
aa(lp200
S'D-3'
p201
aS'T-15'
p202
aa(lp203
S'D-3'
p204
aS'T-15'
p205
aa(lp206
S'D-3'
p207
aS'T-15'
p208
aa(lp209
S'D-3'
p210
aS'T-15'
p211
aa(lp212
S'D-2'
p213
aS'T-5'
p214
aa(lp215
S'D-2'
p216
aS'T-5'
p217
aa(lp218
S'D-2'
p219
aS'T-5'
p220
aa(lp221
S'D-2'
p222
aS'T-5'
p223
aa(lp224
S'D-2'
p225
aS'T-5'
p226
aa(lp227
S'D-2'
p228
aS'T-5'
p229
aa(lp230
S'D-2'
p231
aS'T-5'
p232
aa(lp233
S'D-2'
p234
aS'T-5'
p235
aa(lp236
S'D-2'
p237
aS'T-5'
p238
aa(lp239
S'D-2'
p240
aS'T-5'
p241
aa(lp242
S'D-2'
p243
aS'T-5'
p244
aa(lp245
S'D-2'
p246
aS'T-5'
p247
aa(lp248
S'D-4'
p249
aS'T-44'
p250
aa(lp251
S'D-4'
p252
aS'T-44'
p253
aa(lp254
S'D-4'
p255
aS'T-44'
p256
aa(lp257
S'D-4'
p258
aS'T-44'
p259
aa(lp260
S'D-4'
p261
aS'T-44'
p262
aa(lp263
S'D-4'
p264
aS'T-44'
p265
aa(lp266
S'D-2'
p267
aS'T-7'
p268
aa(lp269
S'D-2'
p270
aS'T-7'
p271
aa(lp272
S'D-2'
p273
aS'T-7'
p274
aa(lp275
S'D-2'
p276
aS'T-7'
p277
aa(lp278
S'D-2'
p279
aS'T-7'
p280
aa(lp281
S'D-2'
p282
aS'T-7'
p283
aa(lp284
S'D-2'
p285
aS'T-7'
p286
aa(lp287
S'D-2'
p288
aS'T-7'
p289
aa(lp290
S'D-2'
p291
aS'T-7'
p292
aa(lp293
S'D-2'
p294
aS'T-7'
p295
aa(lp296
S'D-2'
p297
aS'T-7'
p298
aa(lp299
S'D-2'
p300
aS'T-7'
p301
aa(lp302
S'D-3'
p303
aS'T-19'
p304
aa(lp305
S'D-3'
p306
aS'T-19'
p307
aa(lp308
S'D-3'
p309
aS'T-19'
p310
aa(lp311
S'D-3'
p312
aS'T-19'
p313
aa(lp314
S'D-3'
p315
aS'T-19'
p316
aa(lp317
S'D-3'
p318
aS'T-19'
p319
aa(lp320
S'D-3'
p321
aS'T-19'
p322
aa(lp323
S'D-1'
p324
aS'T-8'
p325
aa(lp326
S'D-1'
p327
aS'T-8'
p328
aa(lp329
S'D-1'
p330
aS'T-8'
p331
aa(lp332
S'D-1'
p333
aS'T-8'
p334
aa(lp335
S'D-1'
p336
aS'T-8'
p337
aa(lp338
S'D-1'
p339
aS'T-8'
p340
aa(lp341
S'D-2'
p342
aS'T-2'
p343
aa(lp344
S'D-2'
p345
aS'T-2'
p346
aa(lp347
S'D-2'
p348
aS'T-2'
p349
aa(lp350
S'D-2'
p351
aS'T-2'
p352
aa(lp353
S'D-2'
p354
aS'T-2'
p355
aa(lp356
S'D-2'
p357
aS'T-2'
p358
aa(lp359
S'D-2'
p360
aS'T-2'
p361
aa(lp362
S'D-2'
p363
aS'T-2'
p364
aa(lp365
S'D-1'
p366
aS'T-4'
p367
aa(lp368
S'D-1'
p369
aS'T-4'
p370
aa(lp371
S'D-1'
p372
aS'T-4'
p373
aa(lp374
S'D-1'
p375
aS'T-4'
p376
aa(lp377
S'D-1'
p378
aS'T-4'
p379
aa(lp380
S'D-1'
p381
aS'T-4'
p382
aa(lp383
S'D-3'
p384
aS'T-16'
p385
aa(lp386
S'D-3'
p387
aS'T-16'
p388
aa(lp389
S'D-3'
p390
aS'T-16'
p391
aa(lp392
S'D-3'
p393
aS'T-16'
p394
aa(lp395
S'D-3'
p396
aS'T-16'
p397
aa(lp398
S'D-1'
p399
aS'T-3'
p400
aa(lp401
S'D-1'
p402
aS'T-3'
p403
aa(lp404
S'D-1'
p405
aS'T-3'
p406
aa(lp407
S'D-1'
p408
aS'T-3'
p409
aa(lp410
S'D-1'
p411
aS'T-3'
p412
aa(lp413
S'D-3'
p414
aS'T-14'
p415
aa(lp416
S'D-3'
p417
aS'T-14'
p418
aa(lp419
S'D-3'
p420
aS'T-14'
p421
aa(lp422
S'D-3'
p423
aS'T-14'
p424
aa(lp425
S'D-3'
p426
aS'T-14'
p427
aa(lp428
S'D-1'
p429
aS'T-1'
p430
aa(lp431
S'D-1'
p432
aS'T-1'
p433
aa(lp434
S'D-1'
p435
aS'T-1'
p436
aa(lp437
S'D-1'
p438
aS'T-1'
p439
aa(lp440
S'D-1'
p441
aS'T-1'
p442
aa(lp443
S'D-1'
p444
aS'T-1'
p445
aa(lp446
S'D-1'
p447
aS'T-1'
p448
aa(lp449
S'D-1'
p450
aS'T-1'
p451
aa(lp452
S'D-1'
p453
aS'T-1'
p454
aa(lp455
S'D-4'
p456
aS'T-31'
p457
aa(lp458
S'D-4'
p459
aS'T-31'
p460
aa(lp461
S'D-4'
p462
aS'T-31'
p463
aa(lp464
S'D-4'
p465
aS'T-31'
p466
aa(lp467
S'D-4'
p468
aS'T-31'
p469
aa(lp470
S'D-4'
p471
aS'T-31'
p472
aa(lp473
S'D-4'
p474
aS'T-31'
p475
aa(lp476
S'D-4'
p477
aS'T-31'
p478
aa(lp479
S'D-4'
p480
aS'T-31'
p481
aa(lp482
S'D-4'
p483
aS'T-31'
p484
aa(lp485
S'D-4'
p486
aS'T-31'
p487
aa(lp488
S'D-4'
p489
aS'T-31'
p490
aa(lp491
S'D-4'
p492
aS'T-33'
p493
aa(lp494
S'D-4'
p495
aS'T-33'
p496
aa(lp497
S'D-4'
p498
aS'T-33'
p499
aa(lp500
S'D-4'
p501
aS'T-33'
p502
aa(lp503
S'D-4'
p504
aS'T-33'
p505
aa(lp506
S'D-4'
p507
aS'T-33'
p508
aa(lp509
S'D-4'
p510
aS'T-33'
p511
aa(lp512
S'D-4'
p513
aS'T-33'
p514
aa(lp515
S'D-4'
p516
aS'T-33'
p517
aa(lp518
S'D-4'
p519
aS'T-33'
p520
aa(lp521
S'D-4'
p522
aS'T-33'
p523
aa(lp524
S'D-4'
p525
aS'T-33'
p526
aa(lp527
S'D-4'
p528
aS'T-32'
p529
aa(lp530
S'D-4'
p531
aS'T-32'
p532
aa(lp533
S'D-4'
p534
aS'T-32'
p535
aa(lp536
S'D-4'
p537
aS'T-32'
p538
aa(lp539
S'D-4'
p540
aS'T-32'
p541
aa(lp542
S'D-4'
p543
aS'T-32'
p544
aa(lp545
S'D-4'
p546
aS'T-32'
p547
aa(lp548
S'D-4'
p549
aS'T-32'
p550
aa(lp551
S'D-4'
p552
aS'T-32'
p553
aa(lp554
S'D-4'
p555
aS'T-32'
p556
aa(lp557
S'D-4'
p558
aS'T-32'
p559
aa(lp560
S'D-4'
p561
aS'T-32'
p562
aa(lp563
S'D-4'
p564
aS'T-37'
p565
aa(lp566
S'D-4'
p567
aS'T-37'
p568
aa(lp569
S'D-4'
p570
aS'T-37'
p571
aa(lp572
S'D-4'
p573
aS'T-37'
p574
aa(lp575
S'D-4'
p576
aS'T-37'
p577
aa(lp578
S'D-4'
p579
aS'T-37'
p580
aa(lp581
S'D-4'
p582
aS'T-37'
p583
aa(lp584
S'D-4'
p585
aS'T-37'
p586
aa(lp587
S'D-4'
p588
aS'T-37'
p589
aa(lp590
S'D-4'
p591
aS'T-37'
p592
aa(lp593
S'D-4'
p594
aS'T-37'
p595
aa(lp596
S'D-4'
p597
aS'T-37'
p598
aa(lp599
S'D-5'
p600
aS'T-50'
p601
aa(lp602
S'D-5'
p603
aS'T-50'
p604
aa(lp605
S'D-5'
p606
aS'T-50'
p607
aa(lp608
S'D-5'
p609
aS'T-50'
p610
aa(lp611
S'D-5'
p612
aS'T-50'
p613
aa(lp614
S'D-5'
p615
aS'T-35'
p616
aa(lp617
S'D-5'
p618
aS'T-35'
p619
aa(lp620
S'D-5'
p621
aS'T-35'
p622
aa(lp623
S'D-5'
p624
aS'T-35'
p625
aa(lp626
S'D-5'
p627
aS'T-35'
p628
aa(lp629
S'D-5'
p630
aS'T-35'
p631
aa(lp632
S'D-5'
p633
aS'T-35'
p634
aa(lp635
S'D-5'
p636
aS'T-35'
p637
aa(lp638
S'D-5'
p639
aS'T-35'
p640
aa(lp641
S'D-5'
p642
aS'T-35'
p643
aa(lp644
S'D-5'
p645
aS'T-35'
p646
aa(lp647
S'D-5'
p648
aS'T-35'
p649
aa(lp650
S'D-4'
p651
aS'T-45'
p652
aa(lp653
S'D-4'
p654
aS'T-45'
p655
aa(lp656
S'D-4'
p657
aS'T-45'
p658
aa(lp659
S'D-4'
p660
aS'T-45'
p661
aa(lp662
S'D-1'
p663
aS'T-30'
p664
aa(lp665
S'D-1'
p666
aS'T-30'
p667
aa(lp668
S'D-1'
p669
aS'T-30'
p670
aa(lp671
S'D-1'
p672
aS'T-30'
p673
aa(lp674
S'D-1'
p675
aS'T-30'
p676
aa(lp677
S'D-1'
p678
aS'T-30'
p679
aa(lp680
S'D-4'
p681
aS'T-43'
p682
aa(lp683
S'D-4'
p684
aS'T-43'
p685
aa(lp686
S'D-4'
p687
aS'T-43'
p688
aa(lp689
S'D-4'
p690
aS'T-43'
p691
aa(lp692
S'D-3'
p693
aS'T-18'
p694
aa(lp695
S'D-3'
p696
aS'T-18'
p697
aa(lp698
S'D-3'
p699
aS'T-18'
p700
aa(lp701
S'D-3'
p702
aS'T-18'
p703
aa(lp704
S'D-3'
p705
aS'T-18'
p706
aa(lp707
S'D-3'
p708
aS'T-18'
p709
aa(lp710
S'D-3'
p711
aS'T-18'
p712
aa(lp713
S'D-3'
p714
aS'T-18'
p715
aa(lp716
S'D-5'
p717
aS'T-38'
p718
aa(lp719
S'D-5'
p720
aS'T-38'
p721
aa(lp722
S'D-5'
p723
aS'T-38'
p724
aa(lp725
S'D-5'
p726
aS'T-38'
p727
aa(lp728
S'D-5'
p729
aS'T-38'
p730
aa(lp731
S'D-5'
p732
aS'T-38'
p733
aa(lp734
S'D-5'
p735
aS'T-38'
p736
aa(lp737
S'D-5'
p738
aS'T-38'
p739
aa(lp740
S'D-5'
p741
aS'T-38'
p742
aa(lp743
S'D-2'
p744
aS'T-21'
p745
aa(lp746
S'D-2'
p747
aS'T-21'
p748
aa(lp749
S'D-2'
p750
aS'T-21'
p751
aa(lp752
S'D-2'
p753
aS'T-21'
p754
aa(lp755
S'D-2'
p756
aS'T-21'
p757
aa(lp758
S'D-2'
p759
aS'T-21'
p760
aa(lp761
S'D-2'
p762
aS'T-21'
p763
aa(lp764
S'D-2'
p765
aS'T-21'
p766
aa(lp767
S'D-2'
p768
aS'T-21'
p769
aa(lp770
S'D-2'
p771
aS'T-21'
p772
aa(lp773
S'D-2'
p774
aS'T-21'
p775
aa(lp776
S'D-2'
p777
aS'T-21'
p778
aa(lp779
S'D-2'
p780
aS'T-22'
p781
aa(lp782
S'D-2'
p783
aS'T-22'
p784
aa(lp785
S'D-2'
p786
aS'T-22'
p787
aa(lp788
S'D-2'
p789
aS'T-22'
p790
aa(lp791
S'D-2'
p792
aS'T-22'
p793
aa(lp794
S'D-2'
p795
aS'T-22'
p796
aa(lp797
S'D-4'
p798
aS'T-46'
p799
aa(lp800
S'D-4'
p801
aS'T-46'
p802
aa(lp803
S'D-4'
p804
aS'T-46'
p805
aa(lp806
S'D-4'
p807
aS'T-46'
p808
aa(lp809
S'D-4'
p810
aS'T-46'
p811
aa(lp812
S'D-4'
p813
aS'T-46'
p814
aa(lp815
S'D-4'
p816
aS'T-46'
p817
aa(lp818
S'D-4'
p819
aS'T-46'
p820
aa(lp821
S'D-4'
p822
aS'T-46'
p823
aa(lp824
S'D-4'
p825
aS'T-46'
p826
aa(lp827
S'D-4'
p828
aS'T-46'
p829
aa(lp830
S'D-4'
p831
aS'T-46'
p832
aa(lp833
S'D-4'
p834
aS'T-48'
p835
aa(lp836
S'D-4'
p837
aS'T-48'
p838
aa(lp839
S'D-4'
p840
aS'T-48'
p841
aa(lp842
S'D-4'
p843
aS'T-48'
p844
aa(lp845
S'D-5'
p846
aS'T-49'
p847
aa(lp848
S'D-5'
p849
aS'T-49'
p850
aa(lp851
S'D-5'
p852
aS'T-49'
p853
aa(lp854
S'D-5'
p855
aS'T-49'
p856
aa(lp857
S'D-5'
p858
aS'T-49'
p859
aa(lp860
S'D-5'
p861
aS'T-49'
p862
aa(lp863
S'D-5'
p864
aS'T-49'
p865
aa(lp866
S'D-1'
p867
aS'T-28'
p868
aa(lp869
S'D-1'
p870
aS'T-28'
p871
aa(lp872
S'D-1'
p873
aS'T-28'
p874
aa(lp875
S'D-1'
p876
aS'T-28'
p877
aa(lp878
S'D-1'
p879
aS'T-28'
p880
aa(lp881
S'D-1'
p882
aS'T-28'
p883
aa(lp884
S'D-1'
p885
aS'T-28'
p886
aa(lp887
S'D-1'
p888
aS'T-28'
p889
aa(lp890
S'D-1'
p891
aS'T-28'
p892
aa(lp893
S'D-1'
p894
aS'T-28'
p895
aa(lp896
S'D-1'
p897
aS'T-28'
p898
aa(lp899
S'D-1'
p900
aS'T-28'
p901
aa(lp902
S'D-1'
p903
aS'T-29'
p904
aa(lp905
S'D-1'
p906
aS'T-29'
p907
aa(lp908
S'D-1'
p909
aS'T-29'
p910
aa(lp911
S'D-1'
p912
aS'T-29'
p913
aa(lp914
S'D-1'
p915
aS'T-29'
p916
aa(lp917
S'D-1'
p918
aS'T-29'
p919
aa(lp920
S'D-1'
p921
aS'T-29'
p922
aa(lp923
S'D-1'
p924
aS'T-29'
p925
aa(lp926
S'D-1'
p927
aS'T-29'
p928
aa(lp929
S'D-5'
p930
aS'T-39'
p931
aa(lp932
S'D-5'
p933
aS'T-39'
p934
aa(lp935
S'D-5'
p936
aS'T-39'
p937
aa(lp938
S'D-5'
p939
aS'T-39'
p940
aa(lp941
S'D-5'
p942
aS'T-39'
p943
aa(lp944
S'D-3'
p945
aS'T-25'
p946
aa(lp947
S'D-3'
p948
aS'T-25'
p949
aa(lp950
S'D-3'
p951
aS'T-25'
p952
aa(lp953
S'D-3'
p954
aS'T-25'
p955
aa(lp956
S'D-3'
p957
aS'T-25'
p958
aa(lp959
S'D-3'
p960
aS'T-25'
p961
aa(lp962
S'D-3'
p963
aS'T-25'
p964
aa(lp965
S'D-3'
p966
aS'T-25'
p967
aa(lp968
S'D-3'
p969
aS'T-25'
p970
aa(lp971
S'D-3'
p972
aS'T-25'
p973
aa(lp974
S'D-3'
p975
aS'T-25'
p976
aa(lp977
S'D-3'
p978
aS'T-25'
p979
aa(lp980
S'D-3'
p981
aS'T-26'
p982
aa(lp983
S'D-3'
p984
aS'T-26'
p985
aa(lp986
S'D-3'
p987
aS'T-26'
p988
aa(lp989
S'D-3'
p990
aS'T-26'
p991
aa(lp992
S'D-4'
p993
aS'T-41'
p994
aa(lp995
S'D-4'
p996
aS'T-41'
p997
aa(lp998
S'D-4'
p999
aS'T-41'
p1000
aa(lp1001
S'D-4'
p1002
aS'T-41'
p1003
aa(lp1004
S'D-4'
p1005
aS'T-41'
p1006
aa(lp1007
S'D-4'
p1008
aS'T-41'
p1009
aa(lp1010
S'D-4'
p1011
aS'T-41'
p1012
aa(lp1013
S'D-4'
p1014
aS'T-41'
p1015
aa(lp1016
S'D-4'
p1017
aS'T-41'
p1018
aa(lp1019
S'D-4'
p1020
aS'T-41'
p1021
aa(lp1022
S'D-4'
p1023
aS'T-41'
p1024
aa(lp1025
S'D-4'
p1026
aS'T-41'
p1027
aa(lp1028
S'D-3'
p1029
aS'T-20'
p1030
aa(lp1031
S'D-3'
p1032
aS'T-20'
p1033
aa(lp1034
S'D-3'
p1035
aS'T-20'
p1036
aa(lp1037
S'D-3'
p1038
aS'T-20'
p1039
aa(lp1040
S'D-5'
p1041
aS'T-42'
p1042
aa(lp1043
S'D-5'
p1044
aS'T-42'
p1045
aa(lp1046
S'D-5'
p1047
aS'T-42'
p1048
aa(lp1049
S'D-5'
p1050
aS'T-42'
p1051
aa(lp1052
S'D-1'
p1053
aS'T-23'
p1054
aa(lp1055
S'D-1'
p1056
aS'T-23'
p1057
aa(lp1058
S'D-1'
p1059
aS'T-23'
p1060
aa(lp1061
S'D-1'
p1062
aS'T-23'
p1063
aa(lp1064
S'D-1'
p1065
aS'T-23'
p1066
aa(lp1067
S'D-1'
p1068
aS'T-23'
p1069
aa(lp1070
S'D-1'
p1071
aS'T-23'
p1072
aa(lp1073
S'D-5'
p1074
aS'T-40'
p1075
aa(lp1076
S'D-5'
p1077
aS'T-40'
p1078
aa(lp1079
S'D-5'
p1080
aS'T-40'
p1081
aa(lp1082
S'D-5'
p1083
aS'T-40'
p1084
aa(lp1085
S'D-5'
p1086
aS'T-40'
p1087
aa(lp1088
S'D-5'
p1089
aS'T-40'
p1090
aa(lp1091
S'D-5'
p1092
aS'T-40'
p1093
aa(lp1094
S'D-5'
p1095
aS'T-40'
p1096
aa(lp1097
S'D-5'
p1098
aS'T-40'
p1099
aa(lp1100
S'D-5'
p1101
aS'T-47'
p1102
aa(lp1103
S'D-5'
p1104
aS'T-47'
p1105
aa(lp1106
S'D-5'
p1107
aS'T-47'
p1108
aa(lp1109
S'D-5'
p1110
aS'T-47'
p1111
aa(lp1112
S'D-5'
p1113
aS'T-47'
p1114
aa(lp1115
S'D-1'
p1116
aS'T-24'
p1117
aa(lp1118
S'D-1'
p1119
aS'T-24'
p1120
aa(lp1121
S'D-1'
p1122
aS'T-24'
p1123
aa(lp1124
S'D-1'
p1125
aS'T-24'
p1126
aa(lp1127
S'D-1'
p1128
aS'T-24'
p1129
aa(lp1130
S'D-1'
p1131
aS'T-27'
p1132
aa(lp1133
S'D-1'
p1134
aS'T-27'
p1135
aa(lp1136
S'D-1'
p1137
aS'T-27'
p1138
aa(lp1139
S'D-1'
p1140
aS'T-27'
p1141
aa(lp1142
S'D-1'
p1143
aS'T-27'
p1144
aa(lp1145
S'D-1'
p1146
aS'T-27'
p1147
aa(lp1148
S'D-1'
p1149
aS'T-27'
p1150
aa(lp1151
S'D-1'
p1152
aS'T-27'
p1153
aa(lp1154
S'D-5'
p1155
aS'T-36'
p1156
aa(lp1157
S'D-5'
p1158
aS'T-36'
p1159
aa(lp1160
S'D-5'
p1161
aS'T-36'
p1162
aa.