(lp1
(lp2
S'D-427'
p3
aS'T-16'
p4
aa(lp5
S'D-427'
p6
aS'T-16'
p7
aa(lp8
S'D-427'
p9
aS'T-16'
p10
aa(lp11
S'D-427'
p12
aS'T-16'
p13
aa(lp14
S'D-144'
p15
aS'T-71'
p16
aa(lp17
S'D-144'
p18
aS'T-71'
p19
aa(lp20
S'D-144'
p21
aS'T-71'
p22
aa(lp23
S'D-144'
p24
aS'T-71'
p25
aa(lp26
S'D-144'
p27
aS'T-71'
p28
aa(lp29
S'D-144'
p30
aS'T-71'
p31
aa(lp32
S'D-144'
p33
aS'T-22'
p34
aa(lp35
S'D-144'
p36
aS'T-22'
p37
aa(lp38
S'D-144'
p39
aS'T-22'
p40
aa(lp41
S'D-144'
p42
aS'T-22'
p43
aa(lp44
S'D-144'
p45
aS'T-22'
p46
aa(lp47
S'D-144'
p48
aS'T-22'
p49
aa(lp50
S'D-144'
p51
aS'T-22'
p52
aa(lp53
S'D-101'
p54
aS'T-35'
p55
aa(lp56
S'D-101'
p57
aS'T-35'
p58
aa(lp59
S'D-101'
p60
aS'T-35'
p61
aa(lp62
S'D-101'
p63
aS'T-35'
p64
aa(lp65
S'D-101'
p66
aS'T-35'
p67
aa(lp68
S'D-101'
p69
aS'T-35'
p70
aa(lp71
S'D-101'
p72
aS'T-35'
p73
aa(lp74
S'D-101'
p75
aS'T-35'
p76
aa(lp77
S'D-101'
p78
aS'T-35'
p79
aa(lp80
S'D-101'
p81
aS'T-35'
p82
aa(lp83
S'D-101'
p84
aS'T-35'
p85
aa(lp86
S'D-101'
p87
aS'T-33'
p88
aa(lp89
S'D-101'
p90
aS'T-33'
p91
aa(lp92
S'D-101'
p93
aS'T-33'
p94
aa(lp95
S'D-101'
p96
aS'T-33'
p97
aa(lp98
S'D-427'
p99
aS'T-65'
p100
aa(lp101
S'D-427'
p102
aS'T-65'
p103
aa(lp104
S'D-427'
p105
aS'T-65'
p106
aa(lp107
S'D-427'
p108
aS'T-65'
p109
aa(lp110
S'D-427'
p111
aS'T-65'
p112
aa(lp113
S'D-427'
p114
aS'T-65'
p115
aa(lp116
S'D-427'
p117
aS'T-62'
p118
aa(lp119
S'D-427'
p120
aS'T-62'
p121
aa(lp122
S'D-427'
p123
aS'T-62'
p124
aa(lp125
S'D-427'
p126
aS'T-62'
p127
aa(lp128
S'D-427'
p129
aS'T-62'
p130
aa(lp131
S'D-427'
p132
aS'T-62'
p133
aa(lp134
S'D-427'
p135
aS'T-62'
p136
aa(lp137
S'D-427'
p138
aS'T-62'
p139
aa(lp140
S'D-427'
p141
aS'T-62'
p142
aa(lp143
S'D-427'
p144
aS'T-62'
p145
aa(lp146
S'D-427'
p147
aS'T-69'
p148
aa(lp149
S'D-427'
p150
aS'T-69'
p151
aa(lp152
S'D-427'
p153
aS'T-69'
p154
aa(lp155
S'D-427'
p156
aS'T-69'
p157
aa(lp158
S'D-427'
p159
aS'T-69'
p160
aa(lp161
S'D-427'
p162
aS'T-69'
p163
aa(lp164
S'D-427'
p165
aS'T-69'
p166
aa(lp167
S'D-427'
p168
aS'T-69'
p169
aa(lp170
S'D-427'
p171
aS'T-69'
p172
aa(lp173
S'D-427'
p174
aS'T-69'
p175
aa(lp176
S'D-427'
p177
aS'T-69'
p178
aa(lp179
S'D-427'
p180
aS'T-69'
p181
aa(lp182
S'D-144'
p183
aS'T-63'
p184
aa(lp185
S'D-144'
p186
aS'T-63'
p187
aa(lp188
S'D-144'
p189
aS'T-63'
p190
aa(lp191
S'D-144'
p192
aS'T-63'
p193
aa(lp194
S'D-144'
p195
aS'T-63'
p196
aa(lp197
S'D-233'
p198
aS'T-19'
p199
aa(lp200
S'D-233'
p201
aS'T-19'
p202
aa(lp203
S'D-233'
p204
aS'T-19'
p205
aa(lp206
S'D-233'
p207
aS'T-19'
p208
aa(lp209
S'D-233'
p210
aS'T-19'
p211
aa(lp212
S'D-233'
p213
aS'T-19'
p214
aa(lp215
S'D-427'
p216
aS'T-84'
p217
aa(lp218
S'D-427'
p219
aS'T-84'
p220
aa(lp221
S'D-427'
p222
aS'T-84'
p223
aa(lp224
S'D-427'
p225
aS'T-84'
p226
aa(lp227
S'D-427'
p228
aS'T-84'
p229
aa(lp230
S'D-427'
p231
aS'T-84'
p232
aa(lp233
S'D-427'
p234
aS'T-84'
p235
aa(lp236
S'D-427'
p237
aS'T-84'
p238
aa(lp239
S'D-427'
p240
aS'T-84'
p241
aa(lp242
S'D-427'
p243
aS'T-84'
p244
aa(lp245
S'D-427'
p246
aS'T-84'
p247
aa(lp248
S'D-427'
p249
aS'T-84'
p250
aa(lp251
S'D-427'
p252
aS'T-87'
p253
aa(lp254
S'D-427'
p255
aS'T-87'
p256
aa(lp257
S'D-427'
p258
aS'T-87'
p259
aa(lp260
S'D-427'
p261
aS'T-87'
p262
aa(lp263
S'D-427'
p264
aS'T-87'
p265
aa(lp266
S'D-427'
p267
aS'T-87'
p268
aa(lp269
S'D-427'
p270
aS'T-87'
p271
aa(lp272
S'D-427'
p273
aS'T-87'
p274
aa(lp275
S'D-427'
p276
aS'T-87'
p277
aa(lp278
S'D-427'
p279
aS'T-87'
p280
aa(lp281
S'D-427'
p282
aS'T-87'
p283
aa(lp284
S'D-427'
p285
aS'T-87'
p286
aa(lp287
S'D-427'
p288
aS'T-86'
p289
aa(lp290
S'D-427'
p291
aS'T-86'
p292
aa(lp293
S'D-427'
p294
aS'T-86'
p295
aa(lp296
S'D-427'
p297
aS'T-86'
p298
aa(lp299
S'D-427'
p300
aS'T-86'
p301
aa(lp302
S'D-427'
p303
aS'T-86'
p304
aa(lp305
S'D-427'
p306
aS'T-86'
p307
aa(lp308
S'D-427'
p309
aS'T-86'
p310
aa(lp311
S'D-427'
p312
aS'T-86'
p313
aa(lp314
S'D-427'
p315
aS'T-86'
p316
aa(lp317
S'D-427'
p318
aS'T-86'
p319
aa(lp320
S'D-427'
p321
aS'T-86'
p322
aa(lp323
S'D-233'
p324
aS'T-28'
p325
aa(lp326
S'D-233'
p327
aS'T-28'
p328
aa(lp329
S'D-233'
p330
aS'T-28'
p331
aa(lp332
S'D-233'
p333
aS'T-28'
p334
aa(lp335
S'D-233'
p336
aS'T-28'
p337
aa(lp338
S'D-233'
p339
aS'T-28'
p340
aa(lp341
S'D-233'
p342
aS'T-28'
p343
aa(lp344
S'D-73'
p345
aS'T-49'
p346
aa(lp347
S'D-73'
p348
aS'T-49'
p349
aa(lp350
S'D-73'
p351
aS'T-49'
p352
aa(lp353
S'D-73'
p354
aS'T-49'
p355
aa(lp356
S'D-73'
p357
aS'T-49'
p358
aa(lp359
S'D-73'
p360
aS'T-49'
p361
aa(lp362
S'D-73'
p363
aS'T-49'
p364
aa(lp365
S'D-73'
p366
aS'T-49'
p367
aa(lp368
S'D-73'
p369
aS'T-49'
p370
aa(lp371
S'D-73'
p372
aS'T-49'
p373
aa(lp374
S'D-73'
p375
aS'T-49'
p376
aa(lp377
S'D-427'
p378
aS'T-32'
p379
aa(lp380
S'D-427'
p381
aS'T-32'
p382
aa(lp383
S'D-427'
p384
aS'T-32'
p385
aa(lp386
S'D-427'
p387
aS'T-32'
p388
aa(lp389
S'D-427'
p390
aS'T-32'
p391
aa(lp392
S'D-427'
p393
aS'T-32'
p394
aa(lp395
S'D-427'
p396
aS'T-32'
p397
aa(lp398
S'D-427'
p399
aS'T-32'
p400
aa(lp401
S'D-427'
p402
aS'T-32'
p403
aa(lp404
S'D-427'
p405
aS'T-32'
p406
aa(lp407
S'D-427'
p408
aS'T-32'
p409
aa(lp410
S'D-427'
p411
aS'T-32'
p412
aa(lp413
S'D-233'
p414
aS'T-20'
p415
aa(lp416
S'D-233'
p417
aS'T-20'
p418
aa(lp419
S'D-233'
p420
aS'T-20'
p421
aa(lp422
S'D-233'
p423
aS'T-20'
p424
aa(lp425
S'D-233'
p426
aS'T-20'
p427
aa(lp428
S'D-233'
p429
aS'T-20'
p430
aa(lp431
S'D-233'
p432
aS'T-20'
p433
aa(lp434
S'D-233'
p435
aS'T-20'
p436
aa(lp437
S'D-73'
p438
aS'T-40'
p439
aa(lp440
S'D-73'
p441
aS'T-40'
p442
aa(lp443
S'D-73'
p444
aS'T-40'
p445
aa(lp446
S'D-73'
p447
aS'T-40'
p448
aa(lp449
S'D-101'
p450
aS'T-56'
p451
aa(lp452
S'D-101'
p453
aS'T-56'
p454
aa(lp455
S'D-101'
p456
aS'T-56'
p457
aa(lp458
S'D-101'
p459
aS'T-56'
p460
aa(lp461
S'D-101'
p462
aS'T-56'
p463
aa(lp464
S'D-155'
p465
aS'T-68'
p466
aa(lp467
S'D-155'
p468
aS'T-68'
p469
aa(lp470
S'D-155'
p471
aS'T-68'
p472
aa(lp473
S'D-155'
p474
aS'T-68'
p475
aa(lp476
S'D-155'
p477
aS'T-68'
p478
aa(lp479
S'D-155'
p480
aS'T-68'
p481
aa(lp482
S'D-155'
p483
aS'T-68'
p484
aa(lp485
S'D-155'
p486
aS'T-68'
p487
aa(lp488
S'D-155'
p489
aS'T-68'
p490
aa(lp491
S'D-155'
p492
aS'T-68'
p493
aa(lp494
S'D-155'
p495
aS'T-68'
p496
aa(lp497
S'D-155'
p498
aS'T-68'
p499
aa(lp500
S'D-144'
p501
aS'T-90'
p502
aa(lp503
S'D-144'
p504
aS'T-90'
p505
aa(lp506
S'D-144'
p507
aS'T-90'
p508
aa(lp509
S'D-144'
p510
aS'T-90'
p511
aa(lp512
S'D-144'
p513
aS'T-90'
p514
aa(lp515
S'D-155'
p516
aS'T-66'
p517
aa(lp518
S'D-155'
p519
aS'T-66'
p520
aa(lp521
S'D-155'
p522
aS'T-66'
p523
aa(lp524
S'D-155'
p525
aS'T-66'
p526
aa(lp527
S'D-155'
p528
aS'T-66'
p529
aa(lp530
S'D-155'
p531
aS'T-66'
p532
aa(lp533
S'D-155'
p534
aS'T-66'
p535
aa(lp536
S'D-155'
p537
aS'T-66'
p538
aa(lp539
S'D-155'
p540
aS'T-66'
p541
aa(lp542
S'D-155'
p543
aS'T-66'
p544
aa(lp545
S'D-155'
p546
aS'T-66'
p547
aa(lp548
S'D-155'
p549
aS'T-66'
p550
aa(lp551
S'D-233'
p552
aS'T-39'
p553
aa(lp554
S'D-233'
p555
aS'T-39'
p556
aa(lp557
S'D-233'
p558
aS'T-39'
p559
aa(lp560
S'D-233'
p561
aS'T-39'
p562
aa(lp563
S'D-233'
p564
aS'T-39'
p565
aa(lp566
S'D-233'
p567
aS'T-39'
p568
aa(lp569
S'D-233'
p570
aS'T-39'
p571
aa(lp572
S'D-233'
p573
aS'T-38'
p574
aa(lp575
S'D-233'
p576
aS'T-38'
p577
aa(lp578
S'D-233'
p579
aS'T-38'
p580
aa(lp581
S'D-233'
p582
aS'T-38'
p583
aa(lp584
S'D-233'
p585
aS'T-38'
p586
aa(lp587
S'D-233'
p588
aS'T-38'
p589
aa(lp590
S'D-233'
p591
aS'T-38'
p592
aa(lp593
S'D-233'
p594
aS'T-38'
p595
aa(lp596
S'D-233'
p597
aS'T-38'
p598
aa(lp599
S'D-233'
p600
aS'T-31'
p601
aa(lp602
S'D-233'
p603
aS'T-31'
p604
aa(lp605
S'D-233'
p606
aS'T-31'
p607
aa(lp608
S'D-233'
p609
aS'T-31'
p610
aa(lp611
S'D-233'
p612
aS'T-31'
p613
aa(lp614
S'D-233'
p615
aS'T-30'
p616
aa(lp617
S'D-233'
p618
aS'T-30'
p619
aa(lp620
S'D-233'
p621
aS'T-30'
p622
aa(lp623
S'D-233'
p624
aS'T-30'
p625
aa(lp626
S'D-233'
p627
aS'T-30'
p628
aa(lp629
S'D-233'
p630
aS'T-30'
p631
aa(lp632
S'D-233'
p633
aS'T-30'
p634
aa(lp635
S'D-101'
p636
aS'T-70'
p637
aa(lp638
S'D-101'
p639
aS'T-70'
p640
aa(lp641
S'D-101'
p642
aS'T-70'
p643
aa(lp644
S'D-101'
p645
aS'T-70'
p646
aa(lp647
S'D-101'
p648
aS'T-70'
p649
aa(lp650
S'D-101'
p651
aS'T-70'
p652
aa(lp653
S'D-101'
p654
aS'T-70'
p655
aa(lp656
S'D-101'
p657
aS'T-70'
p658
aa(lp659
S'D-101'
p660
aS'T-70'
p661
aa(lp662
S'D-101'
p663
aS'T-70'
p664
aa(lp665
S'D-101'
p666
aS'T-70'
p667
aa(lp668
S'D-101'
p669
aS'T-61'
p670
aa(lp671
S'D-101'
p672
aS'T-61'
p673
aa(lp674
S'D-101'
p675
aS'T-61'
p676
aa(lp677
S'D-101'
p678
aS'T-61'
p679
aa(lp680
S'D-155'
p681
aS'T-50'
p682
aa(lp683
S'D-155'
p684
aS'T-50'
p685
aa(lp686
S'D-155'
p687
aS'T-50'
p688
aa(lp689
S'D-155'
p690
aS'T-50'
p691
aa(lp692
S'D-155'
p693
aS'T-50'
p694
aa(lp695
S'D-155'
p696
aS'T-50'
p697
aa(lp698
S'D-155'
p699
aS'T-50'
p700
aa(lp701
S'D-155'
p702
aS'T-50'
p703
aa(lp704
S'D-155'
p705
aS'T-50'
p706
aa(lp707
S'D-155'
p708
aS'T-50'
p709
aa(lp710
S'D-155'
p711
aS'T-50'
p712
aa(lp713
S'D-144'
p714
aS'T-88'
p715
aa(lp716
S'D-144'
p717
aS'T-88'
p718
aa(lp719
S'D-144'
p720
aS'T-88'
p721
aa(lp722
S'D-144'
p723
aS'T-88'
p724
aa(lp725
S'D-144'
p726
aS'T-88'
p727
aa(lp728
S'D-354'
p729
aS'T-24'
p730
aa(lp731
S'D-354'
p732
aS'T-24'
p733
aa(lp734
S'D-354'
p735
aS'T-24'
p736
aa(lp737
S'D-155'
p738
aS'T-57'
p739
aa(lp740
S'D-155'
p741
aS'T-57'
p742
aa(lp743
S'D-155'
p744
aS'T-57'
p745
aa(lp746
S'D-155'
p747
aS'T-57'
p748
aa(lp749
S'D-155'
p750
aS'T-57'
p751
aa(lp752
S'D-155'
p753
aS'T-57'
p754
aa(lp755
S'D-155'
p756
aS'T-57'
p757
aa(lp758
S'D-354'
p759
aS'T-42'
p760
aa(lp761
S'D-354'
p762
aS'T-42'
p763
aa(lp764
S'D-354'
p765
aS'T-42'
p766
aa(lp767
S'D-354'
p768
aS'T-42'
p769
aa(lp770
S'D-354'
p771
aS'T-43'
p772
aa(lp773
S'D-354'
p774
aS'T-43'
p775
aa(lp776
S'D-354'
p777
aS'T-43'
p778
aa(lp779
S'D-354'
p780
aS'T-43'
p781
aa(lp782
S'D-354'
p783
aS'T-43'
p784
aa(lp785
S'D-354'
p786
aS'T-41'
p787
aa(lp788
S'D-354'
p789
aS'T-41'
p790
aa(lp791
S'D-354'
p792
aS'T-41'
p793
aa(lp794
S'D-155'
p795
aS'T-36'
p796
aa(lp797
S'D-155'
p798
aS'T-36'
p799
aa(lp800
S'D-155'
p801
aS'T-36'
p802
aa(lp803
S'D-155'
p804
aS'T-36'
p805
aa(lp806
S'D-155'
p807
aS'T-34'
p808
aa(lp809
S'D-155'
p810
aS'T-34'
p811
aa(lp812
S'D-155'
p813
aS'T-34'
p814
aa(lp815
S'D-155'
p816
aS'T-34'
p817
aa(lp818
S'D-155'
p819
aS'T-34'
p820
aa(lp821
S'D-155'
p822
aS'T-34'
p823
aa(lp824
S'D-155'
p825
aS'T-34'
p826
aa(lp827
S'D-155'
p828
aS'T-34'
p829
aa(lp830
S'D-155'
p831
aS'T-34'
p832
aa(lp833
S'D-155'
p834
aS'T-34'
p835
aa(lp836
S'D-155'
p837
aS'T-34'
p838
aa(lp839
S'D-155'
p840
aS'T-34'
p841
aa(lp842
S'D-479'
p843
aS'T-82'
p844
aa(lp845
S'D-479'
p846
aS'T-82'
p847
aa(lp848
S'D-479'
p849
aS'T-82'
p850
aa(lp851
S'D-479'
p852
aS'T-82'
p853
aa(lp854
S'D-479'
p855
aS'T-82'
p856
aa(lp857
S'D-479'
p858
aS'T-82'
p859
aa(lp860
S'D-479'
p861
aS'T-82'
p862
aa(lp863
S'D-479'
p864
aS'T-82'
p865
aa(lp866
S'D-479'
p867
aS'T-82'
p868
aa(lp869
S'D-479'
p870
aS'T-82'
p871
aa(lp872
S'D-479'
p873
aS'T-82'
p874
aa(lp875
S'D-479'
p876
aS'T-82'
p877
aa(lp878
S'D-479'
p879
aS'T-80'
p880
aa(lp881
S'D-479'
p882
aS'T-80'
p883
aa(lp884
S'D-479'
p885
aS'T-80'
p886
aa(lp887
S'D-479'
p888
aS'T-80'
p889
aa(lp890
S'D-479'
p891
aS'T-80'
p892
aa(lp893
S'D-479'
p894
aS'T-80'
p895
aa(lp896
S'D-479'
p897
aS'T-80'
p898
aa(lp899
S'D-479'
p900
aS'T-80'
p901
aa(lp902
S'D-479'
p903
aS'T-80'
p904
aa(lp905
S'D-479'
p906
aS'T-80'
p907
aa(lp908
S'D-479'
p909
aS'T-80'
p910
aa(lp911
S'D-479'
p912
aS'T-80'
p913
aa(lp914
S'D-479'
p915
aS'T-81'
p916
aa(lp917
S'D-479'
p918
aS'T-81'
p919
aa(lp920
S'D-479'
p921
aS'T-81'
p922
aa(lp923
S'D-479'
p924
aS'T-81'
p925
aa(lp926
S'D-479'
p927
aS'T-81'
p928
aa(lp929
S'D-479'
p930
aS'T-81'
p931
aa(lp932
S'D-479'
p933
aS'T-81'
p934
aa(lp935
S'D-396'
p936
aS'T-100'
p937
aa(lp938
S'D-396'
p939
aS'T-100'
p940
aa(lp941
S'D-396'
p942
aS'T-100'
p943
aa(lp944
S'D-396'
p945
aS'T-100'
p946
aa(lp947
S'D-233'
p948
aS'T-44'
p949
aa(lp950
S'D-233'
p951
aS'T-44'
p952
aa(lp953
S'D-233'
p954
aS'T-44'
p955
aa(lp956
S'D-233'
p957
aS'T-44'
p958
aa(lp959
S'D-233'
p960
aS'T-44'
p961
aa(lp962
S'D-233'
p963
aS'T-44'
p964
aa(lp965
S'D-233'
p966
aS'T-44'
p967
aa(lp968
S'D-233'
p969
aS'T-44'
p970
aa(lp971
S'D-479'
p972
aS'T-76'
p973
aa(lp974
S'D-479'
p975
aS'T-76'
p976
aa(lp977
S'D-479'
p978
aS'T-76'
p979
aa(lp980
S'D-479'
p981
aS'T-76'
p982
aa(lp983
S'D-479'
p984
aS'T-76'
p985
aa(lp986
S'D-479'
p987
aS'T-76'
p988
aa(lp989
S'D-479'
p990
aS'T-76'
p991
aa(lp992
S'D-479'
p993
aS'T-76'
p994
aa(lp995
S'D-479'
p996
aS'T-76'
p997
aa(lp998
S'D-479'
p999
aS'T-76'
p1000
aa(lp1001
S'D-479'
p1002
aS'T-76'
p1003
aa(lp1004
S'D-479'
p1005
aS'T-76'
p1006
aa(lp1007
S'D-479'
p1008
aS'T-75'
p1009
aa(lp1010
S'D-479'
p1011
aS'T-75'
p1012
aa(lp1013
S'D-479'
p1014
aS'T-75'
p1015
aa(lp1016
S'D-479'
p1017
aS'T-75'
p1018
aa(lp1019
S'D-479'
p1020
aS'T-75'
p1021
aa(lp1022
S'D-479'
p1023
aS'T-75'
p1024
aa(lp1025
S'D-479'
p1026
aS'T-75'
p1027
aa(lp1028
S'D-479'
p1029
aS'T-75'
p1030
aa(lp1031
S'D-479'
p1032
aS'T-75'
p1033
aa(lp1034
S'D-479'
p1035
aS'T-75'
p1036
aa(lp1037
S'D-479'
p1038
aS'T-75'
p1039
aa(lp1040
S'D-479'
p1041
aS'T-74'
p1042
aa(lp1043
S'D-479'
p1044
aS'T-74'
p1045
aa(lp1046
S'D-479'
p1047
aS'T-74'
p1048
aa(lp1049
S'D-479'
p1050
aS'T-74'
p1051
aa(lp1052
S'D-479'
p1053
aS'T-74'
p1054
aa(lp1055
S'D-479'
p1056
aS'T-74'
p1057
aa(lp1058
S'D-479'
p1059
aS'T-74'
p1060
aa(lp1061
S'D-479'
p1062
aS'T-74'
p1063
aa(lp1064
S'D-101'
p1065
aS'T-77'
p1066
aa(lp1067
S'D-101'
p1068
aS'T-77'
p1069
aa(lp1070
S'D-101'
p1071
aS'T-77'
p1072
aa(lp1073
S'D-101'
p1074
aS'T-77'
p1075
aa(lp1076
S'D-101'
p1077
aS'T-77'
p1078
aa(lp1079
S'D-101'
p1080
aS'T-77'
p1081
aa(lp1082
S'D-101'
p1083
aS'T-77'
p1084
aa(lp1085
S'D-101'
p1086
aS'T-77'
p1087
aa(lp1088
S'D-101'
p1089
aS'T-77'
p1090
aa(lp1091
S'D-101'
p1092
aS'T-77'
p1093
aa(lp1094
S'D-101'
p1095
aS'T-77'
p1096
aa(lp1097
S'D-101'
p1098
aS'T-77'
p1099
aa(lp1100
S'D-479'
p1101
aS'T-72'
p1102
aa(lp1103
S'D-479'
p1104
aS'T-72'
p1105
aa(lp1106
S'D-479'
p1107
aS'T-72'
p1108
aa(lp1109
S'D-479'
p1110
aS'T-72'
p1111
aa(lp1112
S'D-250'
p1113
aS'T-10'
p1114
aa(lp1115
S'D-250'
p1116
aS'T-10'
p1117
aa(lp1118
S'D-250'
p1119
aS'T-10'
p1120
aa(lp1121
S'D-250'
p1122
aS'T-10'
p1123
aa(lp1124
S'D-250'
p1125
aS'T-10'
p1126
aa(lp1127
S'D-250'
p1128
aS'T-10'
p1129
aa(lp1130
S'D-479'
p1131
aS'T-79'
p1132
aa(lp1133
S'D-479'
p1134
aS'T-79'
p1135
aa(lp1136
S'D-479'
p1137
aS'T-79'
p1138
aa(lp1139
S'D-479'
p1140
aS'T-79'
p1141
aa(lp1142
S'D-479'
p1143
aS'T-79'
p1144
aa(lp1145
S'D-479'
p1146
aS'T-78'
p1147
aa(lp1148
S'D-479'
p1149
aS'T-78'
p1150
aa(lp1151
S'D-479'
p1152
aS'T-78'
p1153
aa(lp1154
S'D-479'
p1155
aS'T-78'
p1156
aa(lp1157
S'D-479'
p1158
aS'T-78'
p1159
aa(lp1160
S'D-479'
p1161
aS'T-78'
p1162
aa(lp1163
S'D-354'
p1164
aS'T-37'
p1165
aa(lp1166
S'D-354'
p1167
aS'T-37'
p1168
aa(lp1169
S'D-354'
p1170
aS'T-37'
p1171
aa(lp1172
S'D-155'
p1173
aS'T-46'
p1174
aa(lp1175
S'D-155'
p1176
aS'T-46'
p1177
aa(lp1178
S'D-155'
p1179
aS'T-46'
p1180
aa(lp1181
S'D-155'
p1182
aS'T-46'
p1183
aa(lp1184
S'D-155'
p1185
aS'T-46'
p1186
aa(lp1187
S'D-155'
p1188
aS'T-46'
p1189
aa(lp1190
S'D-155'
p1191
aS'T-46'
p1192
aa(lp1193
S'D-155'
p1194
aS'T-46'
p1195
aa(lp1196
S'D-155'
p1197
aS'T-46'
p1198
aa(lp1199
S'D-427'
p1200
aS'T-29'
p1201
aa(lp1202
S'D-427'
p1203
aS'T-29'
p1204
aa(lp1205
S'D-427'
p1206
aS'T-29'
p1207
aa(lp1208
S'D-427'
p1209
aS'T-29'
p1210
aa(lp1211
S'D-427'
p1212
aS'T-29'
p1213
aa(lp1214
S'D-427'
p1215
aS'T-29'
p1216
aa(lp1217
S'D-427'
p1218
aS'T-29'
p1219
aa(lp1220
S'D-427'
p1221
aS'T-29'
p1222
aa(lp1223
S'D-427'
p1224
aS'T-29'
p1225
aa(lp1226
S'D-427'
p1227
aS'T-29'
p1228
aa(lp1229
S'D-427'
p1230
aS'T-29'
p1231
aa(lp1232
S'D-427'
p1233
aS'T-29'
p1234
aa(lp1235
S'D-155'
p1236
aS'T-48'
p1237
aa(lp1238
S'D-155'
p1239
aS'T-48'
p1240
aa(lp1241
S'D-155'
p1242
aS'T-48'
p1243
aa(lp1244
S'D-155'
p1245
aS'T-48'
p1246
aa(lp1247
S'D-155'
p1248
aS'T-48'
p1249
aa(lp1250
S'D-155'
p1251
aS'T-48'
p1252
aa(lp1253
S'D-155'
p1254
aS'T-48'
p1255
aa(lp1256
S'D-155'
p1257
aS'T-48'
p1258
aa(lp1259
S'D-155'
p1260
aS'T-48'
p1261
aa(lp1262
S'D-155'
p1263
aS'T-48'
p1264
aa(lp1265
S'D-155'
p1266
aS'T-48'
p1267
aa(lp1268
S'D-155'
p1269
aS'T-48'
p1270
aa(lp1271
S'D-354'
p1272
aS'T-51'
p1273
aa(lp1274
S'D-354'
p1275
aS'T-51'
p1276
aa(lp1277
S'D-354'
p1278
aS'T-51'
p1279
aa(lp1280
S'D-354'
p1281
aS'T-51'
p1282
aa(lp1283
S'D-73'
p1284
aS'T-73'
p1285
aa(lp1286
S'D-73'
p1287
aS'T-73'
p1288
aa(lp1289
S'D-73'
p1290
aS'T-73'
p1291
aa(lp1292
S'D-73'
p1293
aS'T-73'
p1294
aa(lp1295
S'D-354'
p1296
aS'T-59'
p1297
aa(lp1298
S'D-354'
p1299
aS'T-59'
p1300
aa(lp1301
S'D-354'
p1302
aS'T-59'
p1303
aa(lp1304
S'D-354'
p1305
aS'T-59'
p1306
aa(lp1307
S'D-354'
p1308
aS'T-59'
p1309
aa(lp1310
S'D-101'
p1311
aS'T-85'
p1312
aa(lp1313
S'D-101'
p1314
aS'T-85'
p1315
aa(lp1316
S'D-101'
p1317
aS'T-85'
p1318
aa(lp1319
S'D-101'
p1320
aS'T-85'
p1321
aa(lp1322
S'D-101'
p1323
aS'T-85'
p1324
aa(lp1325
S'D-101'
p1326
aS'T-85'
p1327
aa(lp1328
S'D-101'
p1329
aS'T-85'
p1330
aa(lp1331
S'D-101'
p1332
aS'T-85'
p1333
aa(lp1334
S'D-101'
p1335
aS'T-85'
p1336
aa(lp1337
S'D-101'
p1338
aS'T-85'
p1339
aa(lp1340
S'D-101'
p1341
aS'T-83'
p1342
aa(lp1343
S'D-101'
p1344
aS'T-83'
p1345
aa(lp1346
S'D-101'
p1347
aS'T-83'
p1348
aa(lp1349
S'D-101'
p1350
aS'T-83'
p1351
aa(lp1352
S'D-101'
p1353
aS'T-83'
p1354
aa(lp1355
S'D-250'
p1356
aS'T-1'
p1357
aa(lp1358
S'D-250'
p1359
aS'T-1'
p1360
aa(lp1361
S'D-250'
p1362
aS'T-1'
p1363
aa(lp1364
S'D-250'
p1365
aS'T-1'
p1366
aa(lp1367
S'D-250'
p1368
aS'T-1'
p1369
aa(lp1370
S'D-250'
p1371
aS'T-1'
p1372
aa(lp1373
S'D-250'
p1374
aS'T-1'
p1375
aa(lp1376
S'D-250'
p1377
aS'T-2'
p1378
aa(lp1379
S'D-250'
p1380
aS'T-2'
p1381
aa(lp1382
S'D-250'
p1383
aS'T-2'
p1384
aa(lp1385
S'D-250'
p1386
aS'T-2'
p1387
aa(lp1388
S'D-250'
p1389
aS'T-2'
p1390
aa(lp1391
S'D-250'
p1392
aS'T-3'
p1393
aa(lp1394
S'D-250'
p1395
aS'T-3'
p1396
aa(lp1397
S'D-250'
p1398
aS'T-3'
p1399
aa(lp1400
S'D-250'
p1401
aS'T-3'
p1402
aa(lp1403
S'D-250'
p1404
aS'T-3'
p1405
aa(lp1406
S'D-250'
p1407
aS'T-3'
p1408
aa(lp1409
S'D-250'
p1410
aS'T-3'
p1411
aa(lp1412
S'D-250'
p1413
aS'T-4'
p1414
aa(lp1415
S'D-250'
p1416
aS'T-4'
p1417
aa(lp1418
S'D-250'
p1419
aS'T-4'
p1420
aa(lp1421
S'D-250'
p1422
aS'T-4'
p1423
aa(lp1424
S'D-250'
p1425
aS'T-4'
p1426
aa(lp1427
S'D-250'
p1428
aS'T-4'
p1429
aa(lp1430
S'D-250'
p1431
aS'T-4'
p1432
aa(lp1433
S'D-250'
p1434
aS'T-5'
p1435
aa(lp1436
S'D-250'
p1437
aS'T-5'
p1438
aa(lp1439
S'D-250'
p1440
aS'T-5'
p1441
aa(lp1442
S'D-250'
p1443
aS'T-5'
p1444
aa(lp1445
S'D-250'
p1446
aS'T-5'
p1447
aa(lp1448
S'D-250'
p1449
aS'T-5'
p1450
aa(lp1451
S'D-250'
p1452
aS'T-5'
p1453
aa(lp1454
S'D-250'
p1455
aS'T-5'
p1456
aa(lp1457
S'D-250'
p1458
aS'T-5'
p1459
aa(lp1460
S'D-250'
p1461
aS'T-5'
p1462
aa(lp1463
S'D-250'
p1464
aS'T-6'
p1465
aa(lp1466
S'D-250'
p1467
aS'T-6'
p1468
aa(lp1469
S'D-250'
p1470
aS'T-6'
p1471
aa(lp1472
S'D-250'
p1473
aS'T-6'
p1474
aa(lp1475
S'D-250'
p1476
aS'T-7'
p1477
aa(lp1478
S'D-250'
p1479
aS'T-7'
p1480
aa(lp1481
S'D-250'
p1482
aS'T-7'
p1483
aa(lp1484
S'D-250'
p1485
aS'T-7'
p1486
aa(lp1487
S'D-250'
p1488
aS'T-7'
p1489
aa(lp1490
S'D-250'
p1491
aS'T-7'
p1492
aa(lp1493
S'D-250'
p1494
aS'T-8'
p1495
aa(lp1496
S'D-250'
p1497
aS'T-8'
p1498
aa(lp1499
S'D-250'
p1500
aS'T-8'
p1501
aa(lp1502
S'D-250'
p1503
aS'T-8'
p1504
aa(lp1505
S'D-250'
p1506
aS'T-9'
p1507
aa(lp1508
S'D-250'
p1509
aS'T-9'
p1510
aa(lp1511
S'D-250'
p1512
aS'T-9'
p1513
aa(lp1514
S'D-250'
p1515
aS'T-9'
p1516
aa(lp1517
S'D-250'
p1518
aS'T-9'
p1519
aa(lp1520
S'D-250'
p1521
aS'T-9'
p1522
aa(lp1523
S'D-233'
p1524
aS'T-53'
p1525
aa(lp1526
S'D-233'
p1527
aS'T-53'
p1528
aa(lp1529
S'D-233'
p1530
aS'T-53'
p1531
aa(lp1532
S'D-233'
p1533
aS'T-53'
p1534
aa(lp1535
S'D-233'
p1536
aS'T-53'
p1537
aa(lp1538
S'D-233'
p1539
aS'T-53'
p1540
aa(lp1541
S'D-233'
p1542
aS'T-53'
p1543
aa(lp1544
S'D-233'
p1545
aS'T-53'
p1546
aa(lp1547
S'D-233'
p1548
aS'T-52'
p1549
aa(lp1550
S'D-233'
p1551
aS'T-52'
p1552
aa(lp1553
S'D-233'
p1554
aS'T-52'
p1555
aa(lp1556
S'D-233'
p1557
aS'T-52'
p1558
aa(lp1559
S'D-233'
p1560
aS'T-52'
p1561
aa(lp1562
S'D-233'
p1563
aS'T-52'
p1564
aa(lp1565
S'D-144'
p1566
aS'T-25'
p1567
aa(lp1568
S'D-144'
p1569
aS'T-25'
p1570
aa(lp1571
S'D-144'
p1572
aS'T-25'
p1573
aa(lp1574
S'D-144'
p1575
aS'T-25'
p1576
aa(lp1577
S'D-144'
p1578
aS'T-25'
p1579
aa(lp1580
S'D-144'
p1581
aS'T-25'
p1582
aa(lp1583
S'D-144'
p1584
aS'T-25'
p1585
aa(lp1586
S'D-144'
p1587
aS'T-25'
p1588
aa(lp1589
S'D-144'
p1590
aS'T-25'
p1591
aa(lp1592
S'D-144'
p1593
aS'T-25'
p1594
aa(lp1595
S'D-144'
p1596
aS'T-25'
p1597
aa(lp1598
S'D-144'
p1599
aS'T-25'
p1600
aa(lp1601
S'D-155'
p1602
aS'T-45'
p1603
aa(lp1604
S'D-155'
p1605
aS'T-45'
p1606
aa(lp1607
S'D-155'
p1608
aS'T-45'
p1609
aa(lp1610
S'D-155'
p1611
aS'T-45'
p1612
aa(lp1613
S'D-155'
p1614
aS'T-45'
p1615
aa(lp1616
S'D-155'
p1617
aS'T-45'
p1618
aa(lp1619
S'D-155'
p1620
aS'T-45'
p1621
aa(lp1622
S'D-155'
p1623
aS'T-45'
p1624
aa(lp1625
S'D-155'
p1626
aS'T-45'
p1627
aa(lp1628
S'D-155'
p1629
aS'T-45'
p1630
aa(lp1631
S'D-155'
p1632
aS'T-45'
p1633
aa(lp1634
S'D-155'
p1635
aS'T-45'
p1636
aa(lp1637
S'D-427'
p1638
aS'T-55'
p1639
aa(lp1640
S'D-427'
p1641
aS'T-55'
p1642
aa(lp1643
S'D-427'
p1644
aS'T-55'
p1645
aa(lp1646
S'D-427'
p1647
aS'T-55'
p1648
aa(lp1649
S'D-427'
p1650
aS'T-55'
p1651
aa(lp1652
S'D-427'
p1653
aS'T-55'
p1654
aa(lp1655
S'D-354'
p1656
aS'T-64'
p1657
aa(lp1658
S'D-354'
p1659
aS'T-64'
p1660
aa(lp1661
S'D-354'
p1662
aS'T-64'
p1663
aa(lp1664
S'D-354'
p1665
aS'T-64'
p1666
aa(lp1667
S'D-354'
p1668
aS'T-67'
p1669
aa(lp1670
S'D-354'
p1671
aS'T-67'
p1672
aa(lp1673
S'D-354'
p1674
aS'T-67'
p1675
aa(lp1676
S'D-354'
p1677
aS'T-67'
p1678
aa(lp1679
S'D-354'
p1680
aS'T-67'
p1681
aa(lp1682
S'D-354'
p1683
aS'T-67'
p1684
aa(lp1685
S'D-354'
p1686
aS'T-60'
p1687
aa(lp1688
S'D-354'
p1689
aS'T-60'
p1690
aa(lp1691
S'D-354'
p1692
aS'T-60'
p1693
aa(lp1694
S'D-354'
p1695
aS'T-60'
p1696
aa(lp1697
S'D-354'
p1698
aS'T-60'
p1699
aa(lp1700
S'D-354'
p1701
aS'T-60'
p1702
aa(lp1703
S'D-354'
p1704
aS'T-60'
p1705
aa(lp1706
S'D-354'
p1707
aS'T-60'
p1708
aa(lp1709
S'D-354'
p1710
aS'T-60'
p1711
aa(lp1712
S'D-354'
p1713
aS'T-60'
p1714
aa(lp1715
S'D-354'
p1716
aS'T-60'
p1717
aa(lp1718
S'D-354'
p1719
aS'T-60'
p1720
aa(lp1721
S'D-144'
p1722
aS'T-58'
p1723
aa(lp1724
S'D-144'
p1725
aS'T-58'
p1726
aa(lp1727
S'D-144'
p1728
aS'T-58'
p1729
aa(lp1730
S'D-144'
p1731
aS'T-58'
p1732
aa(lp1733
S'D-144'
p1734
aS'T-58'
p1735
aa(lp1736
S'D-144'
p1737
aS'T-58'
p1738
aa(lp1739
S'D-144'
p1740
aS'T-54'
p1741
aa(lp1742
S'D-144'
p1743
aS'T-54'
p1744
aa(lp1745
S'D-144'
p1746
aS'T-54'
p1747
aa(lp1748
S'D-144'
p1749
aS'T-54'
p1750
aa(lp1751
S'D-144'
p1752
aS'T-54'
p1753
aa(lp1754
S'D-144'
p1755
aS'T-54'
p1756
aa(lp1757
S'D-144'
p1758
aS'T-54'
p1759
aa(lp1760
S'D-144'
p1761
aS'T-54'
p1762
aa(lp1763
S'D-144'
p1764
aS'T-54'
p1765
aa(lp1766
S'D-144'
p1767
aS'T-89'
p1768
aa(lp1769
S'D-144'
p1770
aS'T-89'
p1771
aa(lp1772
S'D-144'
p1773
aS'T-89'
p1774
aa(lp1775
S'D-144'
p1776
aS'T-89'
p1777
aa(lp1778
S'D-144'
p1779
aS'T-89'
p1780
aa(lp1781
S'D-144'
p1782
aS'T-89'
p1783
aa(lp1784
S'D-155'
p1785
aS'T-47'
p1786
aa(lp1787
S'D-155'
p1788
aS'T-47'
p1789
aa(lp1790
S'D-155'
p1791
aS'T-47'
p1792
aa(lp1793
S'D-155'
p1794
aS'T-47'
p1795
aa(lp1796
S'D-155'
p1797
aS'T-47'
p1798
aa(lp1799
S'D-155'
p1800
aS'T-47'
p1801
aa(lp1802
S'D-155'
p1803
aS'T-47'
p1804
aa(lp1805
S'D-155'
p1806
aS'T-47'
p1807
aa(lp1808
S'D-155'
p1809
aS'T-47'
p1810
aa(lp1811
S'D-155'
p1812
aS'T-47'
p1813
aa(lp1814
S'D-155'
p1815
aS'T-47'
p1816
aa(lp1817
S'D-155'
p1818
aS'T-47'
p1819
aa(lp1820
S'D-396'
p1821
aS'T-97'
p1822
aa(lp1823
S'D-396'
p1824
aS'T-97'
p1825
aa(lp1826
S'D-396'
p1827
aS'T-97'
p1828
aa(lp1829
S'D-396'
p1830
aS'T-97'
p1831
aa(lp1832
S'D-396'
p1833
aS'T-97'
p1834
aa(lp1835
S'D-396'
p1836
aS'T-97'
p1837
aa(lp1838
S'D-396'
p1839
aS'T-97'
p1840
aa(lp1841
S'D-396'
p1842
aS'T-97'
p1843
aa(lp1844
S'D-396'
p1845
aS'T-96'
p1846
aa(lp1847
S'D-396'
p1848
aS'T-96'
p1849
aa(lp1850
S'D-396'
p1851
aS'T-96'
p1852
aa(lp1853
S'D-396'
p1854
aS'T-96'
p1855
aa(lp1856
S'D-396'
p1857
aS'T-95'
p1858
aa(lp1859
S'D-396'
p1860
aS'T-95'
p1861
aa(lp1862
S'D-396'
p1863
aS'T-95'
p1864
aa(lp1865
S'D-396'
p1866
aS'T-94'
p1867
aa(lp1868
S'D-396'
p1869
aS'T-94'
p1870
aa(lp1871
S'D-396'
p1872
aS'T-94'
p1873
aa(lp1874
S'D-396'
p1875
aS'T-94'
p1876
aa(lp1877
S'D-396'
p1878
aS'T-94'
p1879
aa(lp1880
S'D-396'
p1881
aS'T-94'
p1882
aa(lp1883
S'D-396'
p1884
aS'T-94'
p1885
aa(lp1886
S'D-396'
p1887
aS'T-94'
p1888
aa(lp1889
S'D-396'
p1890
aS'T-94'
p1891
aa(lp1892
S'D-396'
p1893
aS'T-94'
p1894
aa(lp1895
S'D-396'
p1896
aS'T-94'
p1897
aa(lp1898
S'D-396'
p1899
aS'T-94'
p1900
aa(lp1901
S'D-396'
p1902
aS'T-93'
p1903
aa(lp1904
S'D-396'
p1905
aS'T-93'
p1906
aa(lp1907
S'D-396'
p1908
aS'T-93'
p1909
aa(lp1910
S'D-396'
p1911
aS'T-93'
p1912
aa(lp1913
S'D-396'
p1914
aS'T-93'
p1915
aa(lp1916
S'D-396'
p1917
aS'T-93'
p1918
aa(lp1919
S'D-396'
p1920
aS'T-93'
p1921
aa(lp1922
S'D-396'
p1923
aS'T-93'
p1924
aa(lp1925
S'D-396'
p1926
aS'T-93'
p1927
aa(lp1928
S'D-396'
p1929
aS'T-93'
p1930
aa(lp1931
S'D-396'
p1932
aS'T-93'
p1933
aa(lp1934
S'D-396'
p1935
aS'T-92'
p1936
aa(lp1937
S'D-396'
p1938
aS'T-92'
p1939
aa(lp1940
S'D-396'
p1941
aS'T-92'
p1942
aa(lp1943
S'D-396'
p1944
aS'T-92'
p1945
aa(lp1946
S'D-396'
p1947
aS'T-92'
p1948
aa(lp1949
S'D-396'
p1950
aS'T-91'
p1951
aa(lp1952
S'D-396'
p1953
aS'T-91'
p1954
aa(lp1955
S'D-396'
p1956
aS'T-91'
p1957
aa(lp1958
S'D-396'
p1959
aS'T-99'
p1960
aa(lp1961
S'D-396'
p1962
aS'T-99'
p1963
aa(lp1964
S'D-396'
p1965
aS'T-99'
p1966
aa(lp1967
S'D-396'
p1968
aS'T-99'
p1969
aa(lp1970
S'D-396'
p1971
aS'T-99'
p1972
aa(lp1973
S'D-396'
p1974
aS'T-99'
p1975
aa(lp1976
S'D-396'
p1977
aS'T-99'
p1978
aa(lp1979
S'D-396'
p1980
aS'T-99'
p1981
aa(lp1982
S'D-396'
p1983
aS'T-99'
p1984
aa(lp1985
S'D-396'
p1986
aS'T-99'
p1987
aa(lp1988
S'D-396'
p1989
aS'T-99'
p1990
aa(lp1991
S'D-396'
p1992
aS'T-99'
p1993
aa(lp1994
S'D-396'
p1995
aS'T-98'
p1996
aa(lp1997
S'D-396'
p1998
aS'T-98'
p1999
aa(lp2000
S'D-396'
p2001
aS'T-98'
p2002
aa(lp2003
S'D-396'
p2004
aS'T-98'
p2005
aa(lp2006
S'D-396'
p2007
aS'T-98'
p2008
aa(lp2009
S'D-396'
p2010
aS'T-98'
p2011
aa(lp2012
S'D-396'
p2013
aS'T-98'
p2014
aa(lp2015
S'D-396'
p2016
aS'T-98'
p2017
aa(lp2018
S'D-396'
p2019
aS'T-98'
p2020
aa(lp2021
S'D-396'
p2022
aS'T-98'
p2023
aa(lp2024
S'D-396'
p2025
aS'T-98'
p2026
aa(lp2027
S'D-396'
p2028
aS'T-98'
p2029
aa(lp2030
S'D-73'
p2031
aS'T-12'
p2032
aa(lp2033
S'D-73'
p2034
aS'T-12'
p2035
aa(lp2036
S'D-73'
p2037
aS'T-12'
p2038
aa(lp2039
S'D-73'
p2040
aS'T-12'
p2041
aa(lp2042
S'D-73'
p2043
aS'T-12'
p2044
aa(lp2045
S'D-73'
p2046
aS'T-12'
p2047
aa(lp2048
S'D-73'
p2049
aS'T-12'
p2050
aa(lp2051
S'D-73'
p2052
aS'T-12'
p2053
aa(lp2054
S'D-73'
p2055
aS'T-13'
p2056
aa(lp2057
S'D-73'
p2058
aS'T-13'
p2059
aa(lp2060
S'D-73'
p2061
aS'T-13'
p2062
aa(lp2063
S'D-73'
p2064
aS'T-13'
p2065
aa(lp2066
S'D-73'
p2067
aS'T-13'
p2068
aa(lp2069
S'D-73'
p2070
aS'T-13'
p2071
aa(lp2072
S'D-73'
p2073
aS'T-13'
p2074
aa(lp2075
S'D-73'
p2076
aS'T-13'
p2077
aa(lp2078
S'D-73'
p2079
aS'T-11'
p2080
aa(lp2081
S'D-73'
p2082
aS'T-11'
p2083
aa(lp2084
S'D-73'
p2085
aS'T-11'
p2086
aa(lp2087
S'D-73'
p2088
aS'T-11'
p2089
aa(lp2090
S'D-73'
p2091
aS'T-11'
p2092
aa(lp2093
S'D-73'
p2094
aS'T-11'
p2095
aa(lp2096
S'D-73'
p2097
aS'T-11'
p2098
aa(lp2099
S'D-73'
p2100
aS'T-11'
p2101
aa(lp2102
S'D-73'
p2103
aS'T-17'
p2104
aa(lp2105
S'D-73'
p2106
aS'T-17'
p2107
aa(lp2108
S'D-73'
p2109
aS'T-17'
p2110
aa(lp2111
S'D-73'
p2112
aS'T-17'
p2113
aa(lp2114
S'D-73'
p2115
aS'T-17'
p2116
aa(lp2117
S'D-73'
p2118
aS'T-14'
p2119
aa(lp2120
S'D-73'
p2121
aS'T-14'
p2122
aa(lp2123
S'D-73'
p2124
aS'T-14'
p2125
aa(lp2126
S'D-73'
p2127
aS'T-14'
p2128
aa(lp2129
S'D-73'
p2130
aS'T-14'
p2131
aa(lp2132
S'D-73'
p2133
aS'T-14'
p2134
aa(lp2135
S'D-73'
p2136
aS'T-14'
p2137
aa(lp2138
S'D-73'
p2139
aS'T-14'
p2140
aa(lp2141
S'D-73'
p2142
aS'T-15'
p2143
aa(lp2144
S'D-73'
p2145
aS'T-15'
p2146
aa(lp2147
S'D-73'
p2148
aS'T-15'
p2149
aa(lp2150
S'D-73'
p2151
aS'T-15'
p2152
aa(lp2153
S'D-73'
p2154
aS'T-15'
p2155
aa(lp2156
S'D-73'
p2157
aS'T-15'
p2158
aa(lp2159
S'D-73'
p2160
aS'T-15'
p2161
aa(lp2162
S'D-73'
p2163
aS'T-18'
p2164
aa(lp2165
S'D-73'
p2166
aS'T-18'
p2167
aa(lp2168
S'D-73'
p2169
aS'T-18'
p2170
aa(lp2171
S'D-73'
p2172
aS'T-18'
p2173
aa(lp2174
S'D-73'
p2175
aS'T-18'
p2176
aa(lp2177
S'D-73'
p2178
aS'T-18'
p2179
aa(lp2180
S'D-73'
p2181
aS'T-18'
p2182
aa(lp2183
S'D-73'
p2184
aS'T-18'
p2185
aa(lp2186
S'D-73'
p2187
aS'T-18'
p2188
aa(lp2189
S'D-73'
p2190
aS'T-18'
p2191
aa(lp2192
S'D-101'
p2193
aS'T-26'
p2194
aa(lp2195
S'D-101'
p2196
aS'T-26'
p2197
aa(lp2198
S'D-101'
p2199
aS'T-26'
p2200
aa(lp2201
S'D-101'
p2202
aS'T-26'
p2203
aa(lp2204
S'D-101'
p2205
aS'T-26'
p2206
aa(lp2207
S'D-101'
p2208
aS'T-26'
p2209
aa(lp2210
S'D-101'
p2211
aS'T-26'
p2212
aa(lp2213
S'D-101'
p2214
aS'T-27'
p2215
aa(lp2216
S'D-101'
p2217
aS'T-27'
p2218
aa(lp2219
S'D-101'
p2220
aS'T-27'
p2221
aa(lp2222
S'D-101'
p2223
aS'T-27'
p2224
aa(lp2225
S'D-101'
p2226
aS'T-27'
p2227
aa(lp2228
S'D-101'
p2229
aS'T-27'
p2230
aa(lp2231
S'D-144'
p2232
aS'T-23'
p2233
aa(lp2234
S'D-144'
p2235
aS'T-23'
p2236
aa(lp2237
S'D-144'
p2238
aS'T-23'
p2239
aa(lp2240
S'D-144'
p2241
aS'T-23'
p2242
aa(lp2243
S'D-479'
p2244
aS'T-21'
p2245
aa(lp2246
S'D-479'
p2247
aS'T-21'
p2248
aa(lp2249
S'D-479'
p2250
aS'T-21'
p2251
aa(lp2252
S'D-479'
p2253
aS'T-21'
p2254
aa(lp2255
S'D-479'
p2256
aS'T-21'
p2257
aa(lp2258
S'D-479'
p2259
aS'T-21'
p2260
aa(lp2261
S'D-479'
p2262
aS'T-21'
p2263
aa(lp2264
S'D-479'
p2265
aS'T-21'
p2266
aa(lp2267
S'D-479'
p2268
aS'T-21'
p2269
aa(lp2270
S'D-479'
p2271
aS'T-21'
p2272
aa(lp2273
S'D-479'
p2274
aS'T-21'
p2275
aa.